; Function Attrs: mustprogress nofree norecurse nosync nounwind willreturn memory(argmem: readwrite) uwtable
define dso_local ptr @LZ4_slideInputBufferHC(ptr noundef %0) local_unnamed_addr #5 {
  %2 = getelementptr inbounds nuw i8, ptr %0, i64 262152
  %3 = load ptr, ptr %2, align 8, !tbaa !13
  %4 = getelementptr inbounds nuw i8, ptr %0, i64 262168
  %5 = load i32, ptr %4, align 8, !tbaa !14
  %6 = getelementptr inbounds nuw i8, ptr %0, i64 262172
  %7 = load i32, ptr %6, align 4, !tbaa !35
  %8 = getelementptr inbounds nuw i8, ptr %0, i64 262180
  %9 = load i16, ptr %8, align 4, !tbaa !36
  %10 = getelementptr inbounds nuw i8, ptr %0, i64 262183
  %11 = load i8, ptr %10, align 1, !tbaa !31
  %.not.i = icmp eq i8 %11, 0
  br i1 %.not.i, label %16, label %12

12:                                               ; preds = %1
  %13 = ptrtoint ptr %0 to i64
  %14 = and i64 %13, 7
  %.not.i.i = icmp eq i64 %14, 0
  br i1 %.not.i.i, label %15, label %LZ4_resetStreamHC_fast.exit

15:                                               ; preds = %12
  tail call void @llvm.memset.p0.i64(ptr noundef nonnull align 8 dereferenceable(262192) %0, i8 0, i64 262192, i1 false)
  br label %LZ4_resetStreamHC_fast.exit

16:                                               ; preds = %1
  %17 = getelementptr inbounds nuw i8, ptr %0, i64 262144
  %18 = load ptr, ptr %17, align 8, !tbaa !4
  %19 = ptrtoint ptr %18 to i64
  %20 = ptrtoint ptr %3 to i64
  %21 = sub i64 %19, %20
  %22 = trunc i64 %21 to i32
  %23 = add i32 %5, %22
  store i32 %23, ptr %4, align 8, !tbaa !14
  %24 = getelementptr inbounds nuw i8, ptr %0, i64 262184
  store ptr null, ptr %24, align 8, !tbaa !32
  tail call void @llvm.memset.p0.i64(ptr noundef nonnull align 8 dereferenceable(16) %17, i8 0, i64 16, i1 false)
  br label %LZ4_resetStreamHC_fast.exit

LZ4_resetStreamHC_fast.exit:                      ; preds = %12, %15, %16
  %25 = zext i32 %5 to i64
  %26 = sub nsw i64 0, %25
  %27 = getelementptr inbounds i8, ptr %3, i64 %26
  %28 = zext i32 %7 to i64
  %29 = getelementptr inbounds nuw i8, ptr %27, i64 %28
  %30 = icmp slt i16 %9, 1
  %31 = tail call i16 @llvm.umin.i16(i16 %9, i16 12)
  %32 = select i1 %30, i16 9, i16 %31
  store i16 %32, ptr %8, align 4, !tbaa !26
  ret ptr %29
}